; Function Attrs: mustprogress uwtable
define dso_local void @_ZN10cmDebugger30cmDebuggerPipeConnection_POSIX12close_listenEv(ptr nocapture noundef nonnull align 8 dereferenceable(216) %0) local_unnamed_addr #0 align 2 {
  %2 = getelementptr inbounds i8, ptr %0, i64 98
  %char0 = load i8, ptr %2, align 2
  %.not = icmp eq i8 %char0, 0
  br i1 %.not, label %5, label %3

3:                                                ; preds = %1
  %4 = tail call i32 @unlink(ptr noundef nonnull %2) #25
  store i8 0, ptr %2, align 2
  br label %5

5:                                                ; preds = %3, %1
  %6 = getelementptr inbounds i8, ptr %0, i64 208
  %7 = load i32, ptr %6, align 8
  %8 = tail call i32 @close(i32 noundef %7)
  store i32 -1, ptr %6, align 8
  ret void
}